target datalayout = "e-m:e-p270:32:32-p271:32:32-p272:64:64-i64:64-i128:128-f80:128-n8:16:32:64-S128"
target triple = "x86_64-pc-linux-gnu"

%struct.pkcs7_st = type { ptr, i64, i32, i32, ptr, %union.anon, %struct.PKCS7_CTX_st }
%union.anon = type { ptr }
%struct.PKCS7_CTX_st = type { ptr, ptr }
%struct.pkcs7_signed_st = type { ptr, ptr, ptr, ptr, ptr, ptr }
%struct.pkcs7_digest_st = type { ptr, ptr, ptr, ptr }

@.str = private unnamed_addr constant [34 x i8] c"../openssl/crypto/pkcs7/pk7_lib.c\00", align 1
@__func__.PKCS7_set_content = private unnamed_addr constant [18 x i8] c"PKCS7_set_content\00", align 1

; Function Attrs: nounwind uwtable
define i32 @PKCS7_set_content(ptr noundef %0, ptr noundef %1) #0 {
  %3 = alloca i32, align 4
  %4 = alloca ptr, align 8
  %5 = alloca ptr, align 8
  %6 = alloca i32, align 4
  %7 = alloca i32, align 4
  store ptr %0, ptr %4, align 8, !tbaa !3
  store ptr %1, ptr %5, align 8, !tbaa !3
  call void @llvm.lifetime.start.p0(i64 4, ptr %6) #4
  %8 = load ptr, ptr %4, align 8, !tbaa !3
  %9 = getelementptr inbounds nuw %struct.pkcs7_st, ptr %8, i32 0, i32 4
  %10 = load ptr, ptr %9, align 8, !tbaa !14
  %11 = call i32 @OBJ_obj2nid(ptr noundef %10)
  store i32 %11, ptr %6, align 4, !tbaa !8
  %12 = load i32, ptr %6, align 4, !tbaa !8
  switch i32 %12, label %36 [
    i32 22, label %13
    i32 25, label %24
    i32 21, label %35
    i32 23, label %35
    i32 24, label %35
    i32 26, label %35
  ]

13:                                               ; preds = %2
  %14 = load ptr, ptr %4, align 8, !tbaa !3
  %15 = getelementptr inbounds nuw %struct.pkcs7_st, ptr %14, i32 0, i32 5
  %16 = load ptr, ptr %15, align 8, !tbaa !19
  %17 = getelementptr inbounds nuw %struct.pkcs7_signed_st, ptr %16, i32 0, i32 5
  %18 = load ptr, ptr %17, align 8, !tbaa !21
  call void @PKCS7_free(ptr noundef %18)
  %19 = load ptr, ptr %5, align 8, !tbaa !3
  %20 = load ptr, ptr %4, align 8, !tbaa !3
  %21 = getelementptr inbounds nuw %struct.pkcs7_st, ptr %20, i32 0, i32 5
  %22 = load ptr, ptr %21, align 8, !tbaa !19
  %23 = getelementptr inbounds nuw %struct.pkcs7_signed_st, ptr %22, i32 0, i32 5
  store ptr %19, ptr %23, align 8, !tbaa !21
  br label %37

24:                                               ; preds = %2
  %25 = load ptr, ptr %4, align 8, !tbaa !3
  %26 = getelementptr inbounds nuw %struct.pkcs7_st, ptr %25, i32 0, i32 5
  %27 = load ptr, ptr %26, align 8, !tbaa !19
  %28 = getelementptr inbounds nuw %struct.pkcs7_digest_st, ptr %27, i32 0, i32 2
  %29 = load ptr, ptr %28, align 8, !tbaa !49
  call void @PKCS7_free(ptr noundef %29)
  %30 = load ptr, ptr %5, align 8, !tbaa !3
  %31 = load ptr, ptr %4, align 8, !tbaa !3
  %32 = getelementptr inbounds nuw %struct.pkcs7_st, ptr %31, i32 0, i32 5
  %33 = load ptr, ptr %32, align 8, !tbaa !19
  %34 = getelementptr inbounds nuw %struct.pkcs7_digest_st, ptr %33, i32 0, i32 2
  store ptr %30, ptr %34, align 8, !tbaa !49
  br label %37

35:                                               ; preds = %2, %2, %2, %2
  br label %36

36:                                               ; preds = %2, %35
  call void @ERR_new()
  call void @ERR_set_debug(ptr noundef @.str, i32 noundef 107, ptr noundef @__func__.PKCS7_set_content)
  call void (i32, i32, ptr, ...) @ERR_set_error(i32 noundef 33, i32 noundef 112, ptr noundef null)
  br label %38

37:                                               ; preds = %24, %13
  store i32 1, ptr %3, align 4
  store i32 1, ptr %7, align 4
  br label %39

38:                                               ; preds = %36
  store i32 0, ptr %3, align 4
  store i32 1, ptr %7, align 4
  br label %39

39:                                               ; preds = %38, %37
  call void @llvm.lifetime.end.p0(i64 4, ptr %6) #4
  %40 = load i32, ptr %3, align 4
  ret i32 %40
}