; Function Attrs: nounwind uwtable
define range(i32 0, 2) i32 @PKCS7_set_content(ptr noundef readonly captures(none) %0, ptr noundef %1) local_unnamed_addr #0 {
  %3 = getelementptr inbounds nuw i8, ptr %0, i64 24
  %4 = load ptr, ptr %3, align 8, !tbaa !3
  %5 = tail call i32 @OBJ_obj2nid(ptr noundef %4) #7
  switch i32 %5, label %20 [
    i32 22, label %6
    i32 25, label %13
  ]

6:                                                ; preds = %2
  %7 = getelementptr inbounds nuw i8, ptr %0, i64 32
  %8 = load ptr, ptr %7, align 8, !tbaa !14
  %9 = getelementptr inbounds nuw i8, ptr %8, i64 40
  %10 = load ptr, ptr %9, align 8, !tbaa !16
  tail call void @PKCS7_free(ptr noundef %10) #7
  %11 = load ptr, ptr %7, align 8, !tbaa !14
  %12 = getelementptr inbounds nuw i8, ptr %11, i64 40
  store ptr %1, ptr %12, align 8, !tbaa !16
  br label %21

13:                                               ; preds = %2
  %14 = getelementptr inbounds nuw i8, ptr %0, i64 32
  %15 = load ptr, ptr %14, align 8, !tbaa !14
  %16 = getelementptr inbounds nuw i8, ptr %15, i64 16
  %17 = load ptr, ptr %16, align 8, !tbaa !43
  tail call void @PKCS7_free(ptr noundef %17) #7
  %18 = load ptr, ptr %14, align 8, !tbaa !14
  %19 = getelementptr inbounds nuw i8, ptr %18, i64 16
  store ptr %1, ptr %19, align 8, !tbaa !43
  br label %21

20:                                               ; preds = %2
  tail call void @ERR_new() #7
  tail call void @ERR_set_debug(ptr noundef nonnull @.str, i32 noundef 107, ptr noundef nonnull @__func__.PKCS7_set_content) #7
  tail call void (i32, i32, ptr, ...) @ERR_set_error(i32 noundef 33, i32 noundef 112, ptr noundef null) #7
  br label %21

21:                                               ; preds = %6, %13, %20
  %.0 = phi i32 [ 0, %20 ], [ 1, %13 ], [ 1, %6 ]
  ret i32 %.0
}